; Function Attrs: nounwind uwtable
define hidden void @_mi_heap_unsafe_destroy_all(ptr noundef readonly %0) local_unnamed_addr #0 {
  %2 = icmp eq ptr %0, null
  br i1 %2, label %.loopexit, label %3

3:                                                ; preds = %1
  %4 = load ptr, ptr %0, align 8, !tbaa !14
  %5 = getelementptr inbounds nuw i8, ptr %4, i64 24
  %6 = load ptr, ptr %5, align 8, !tbaa !45
  %.not9 = icmp eq ptr %6, null
  br i1 %.not9, label %.loopexit, label %.lr.ph

.lr.ph:                                           ; preds = %3, %30
  %.010 = phi ptr [ %8, %30 ], [ %6, %3 ]
  %7 = getelementptr inbounds nuw i8, ptr %.010, i64 216
  %8 = load ptr, ptr %7, align 8, !tbaa !46
  %9 = getelementptr inbounds nuw i8, ptr %.010, i64 224
  %10 = load i8, ptr %9, align 8, !tbaa !24, !range !25, !noundef !26
  %11 = trunc nuw i8 %10 to i1
  br i1 %11, label %12, label %13

12:                                               ; preds = %.lr.ph
  tail call void @mi_heap_destroy(ptr noundef nonnull %.010) #10
  br label %30

13:                                               ; preds = %.lr.ph
  %14 = getelementptr inbounds nuw i8, ptr %.010, i64 192
  %15 = load i64, ptr %14, align 8, !tbaa !27
  %16 = icmp eq i64 %15, 0
  br i1 %16, label %_mi_heap_destroy_pages.exit, label %.preheader.i.i

.preheader.i.i:                                   ; preds = %13
  %17 = getelementptr inbounds nuw i8, ptr %.010, i64 1264
  br label %18

18:                                               ; preds = %.critedge.i.i, %.preheader.i.i
  %.02229.i.i = phi i64 [ 0, %.preheader.i.i ], [ %26, %.critedge.i.i ]
  %19 = getelementptr inbounds nuw [75 x %struct.mi_page_queue_s], ptr %17, i64 0, i64 %.02229.i.i
  %20 = load ptr, ptr %19, align 8, !tbaa !28
  %.not.i2.i = icmp eq ptr %20, null
  br i1 %.not.i2.i, label %.critedge.i.i, label %.lr.ph.i

.lr.ph.i:                                         ; preds = %18, %.lr.ph.i
  %.020.i3.i = phi ptr [ %22, %.lr.ph.i ], [ %20, %18 ]
  %21 = getelementptr inbounds nuw i8, ptr %.020.i3.i, i64 72
  %22 = load ptr, ptr %21, align 8, !tbaa !31
  tail call void @_mi_page_use_delayed_free(ptr noundef nonnull %.020.i3.i, i32 noundef 3, i1 noundef zeroext false) #11
  %23 = getelementptr inbounds nuw i8, ptr %.020.i3.i, i64 32
  store i16 0, ptr %23, align 8, !tbaa !39
  tail call void @llvm.memset.p0.i64(ptr noundef nonnull align 8 dereferenceable(16) %21, i8 0, i64 16, i1 false)
  %24 = load ptr, ptr %.010, align 8, !tbaa !14
  %25 = getelementptr inbounds nuw i8, ptr %24, i64 32
  tail call void @_mi_segment_page_free(ptr noundef nonnull %.020.i3.i, i1 noundef zeroext false, ptr noundef nonnull %25) #11
  %.not.i.i = icmp eq ptr %22, null
  br i1 %.not.i.i, label %.critedge.i.i, label %.lr.ph.i, !llvm.loop !36

.critedge.i.i:                                    ; preds = %.lr.ph.i, %18
  %26 = add nuw nsw i64 %.02229.i.i, 1
  %exitcond.i.i = icmp eq i64 %26, 75
  br i1 %exitcond.i.i, label %_mi_heap_destroy_pages.exit, label %18, !llvm.loop !38

_mi_heap_destroy_pages.exit:                      ; preds = %.critedge.i.i, %13
  %27 = getelementptr inbounds nuw i8, ptr %.010, i64 232
  tail call void @llvm.memset.p0.i64(ptr noundef nonnull align 8 dereferenceable(1032) %27, i8 0, i64 1032, i1 false)
  %28 = getelementptr inbounds nuw i8, ptr %.010, i64 1264
  call void @llvm.assume(i1 true) [ "align"(ptr %28, i64 8) ]
  call void @llvm.assume(i1 true) [ "align"(ptr getelementptr inbounds nuw (i8, ptr @_mi_heap_empty, i64 1264), i64 8) ]
  tail call void @llvm.memcpy.p0.p0.i64(ptr noundef nonnull align 8 dereferenceable(1800) %28, ptr noundef nonnull readonly align 8 dereferenceable(1800) getelementptr inbounds nuw (i8, ptr @_mi_heap_empty, i64 1264), i64 range(i64 1800, 3065) 1800, i1 false)
  %29 = getelementptr inbounds nuw i8, ptr %.010, i64 8
  store atomic ptr null, ptr %29 seq_cst, align 8, !tbaa !48
  store i64 0, ptr %14, align 8, !tbaa !27
  br label %30

30:                                               ; preds = %_mi_heap_destroy_pages.exit, %12
  %.not = icmp eq ptr %8, null
  br i1 %.not, label %.loopexit, label %.lr.ph, !llvm.loop !51

.loopexit:                                        ; preds = %30, %3, %1
  ret void
}